(i__main__
NeuralNetwork
p0
(dp1
S'alpha'
p2
F0.05
sS'hidden'
p3
(lp4
(i__main__
Neuron
p5
(dp6
g2
F0.05
sS'weights'
p7
(lp8
F-2.7787878734107925
aF7.84486041307285
aF4.197364832692419
aF-3.736244244671008
aF-0.9559177028757668
aF-1.9124186310856925
asS'act'
p9
F0.9515604859684491
sba(i__main__
Neuron
p10
(dp11
g2
F0.05
sg7
(lp12
F9.027344318075306
aF-2.334630801777913
aF0.6392204367459131
aF-3.8409288468322464
aF-0.6363626469407839
aF-2.7915345519467176
asg9
F0.04797296506876964
sba(i__main__
Neuron
p13
(dp14
g2
F0.05
sg7
(lp15
F-6.540690384566884
aF3.324324202690636
aF0.5983962194637175
aF3.2474082067377155
aF1.2331289482297332
aF1.383396687346672
asg9
F0.935161152894659
sba(i__main__
Neuron
p16
(dp17
g2
F0.05
sg7
(lp18
F1.7326335785837554
aF0.5122659864997579
aF1.3510716075850455
aF-1.0992760794951169
aF0.05441639375203762
aF0.2163973336830755
asg9
F0.7779424559766516
sba(i__main__
Neuron
p19
(dp20
g2
F0.05
sg7
(lp21
F-3.5380775825056885
aF-5.980507092676793
aF-4.55874087771109
aF7.041403419083554
aF2.322777640330241
aF1.7374918032958593
asg9
F0.05232830631397969
sbasS'output'
p22
(lp23
(i__main__
Neuron
p24
(dp25
g2
F0.05
sg7
(lp26
F-7.092496445159466
aF-6.118075800365663
aF2.424964737289376
aF-2.5159290968390184
aF8.669956621960301
aF0.9124873396726496
asg9
F0.0018731241442649918
sba(i__main__
Neuron
p27
(dp28
g2
F0.05
sg7
(lp29
F-2.3010549129009172
aF8.446304412983977
aF-6.945300052639915
aF1.6589707187003164
aF-3.6430072721495113
aF0.004161069219687175
asg9
F0.0007615277599190756
sba(i__main__
Neuron
p30
(dp31
g2
F0.05
sg7
(lp32
F7.019208346819729
aF-5.381405013338681
aF2.834535175670145
aF-1.5446997234556459
aF-7.861896661534567
aF0.3878476717300994
asg9
F0.9994239266373802
sbasb.